; ModuleID = '16/800.c'
source_filename = "16/800.c"
target datalayout = "e-m:e-p270:32:32-p271:32:32-p272:64:64-i64:64-f80:128-n8:16:32:64-S128"
target triple = "x86_64-pc-linux-gnu"

@.str = private unnamed_addr constant [3 x i8] c"%d\00", align 1
@.str.1 = private unnamed_addr constant [11 x i8] c"%d%d%d%d%d\00", align 1
@.str.2 = private unnamed_addr constant [9 x i8] c"%d%d%d%d\00", align 1
@.str.3 = private unnamed_addr constant [7 x i8] c"%d%d%d\00", align 1
@.str.4 = private unnamed_addr constant [5 x i8] c"%d%d\00", align 1

; Function Attrs: noinline nounwind uwtable
define dso_local i32 @main() #0 {
  %1 = alloca i32, align 4
  %2 = alloca i32, align 4
  %3 = alloca i32, align 4
  %4 = alloca i32, align 4
  %5 = alloca i32, align 4
  %6 = alloca i32, align 4
  %7 = alloca i32, align 4
  %8 = alloca i32, align 4
  store i32 0, i32* %1, align 4
  %9 = call i32 (i8*, ...) @__isoc99_scanf(i8* getelementptr inbounds ([3 x i8], [3 x i8]* @.str, i64 0, i64 0), i32* %2)
  %10 = load i32, i32* %2, align 4
  %11 = sdiv i32 %10, 10000
  store i32 %11, i32* %3, align 4
  %12 = load i32, i32* %2, align 4
  %13 = load i32, i32* %3, align 4
  %14 = mul nsw i32 %13, 10000
  %15 = sub nsw i32 %12, %14
  %16 = sdiv i32 %15, 1000
  store i32 %16, i32* %4, align 4
  %17 = load i32, i32* %2, align 4
  %18 = load i32, i32* %3, align 4
  %19 = mul nsw i32 %18, 10000
  %20 = sub nsw i32 %17, %19
  %21 = load i32, i32* %4, align 4
  %22 = mul nsw i32 %21, 1000
  %23 = sub nsw i32 %20, %22
  %24 = sdiv i32 %23, 100
  store i32 %24, i32* %5, align 4
  %25 = load i32, i32* %2, align 4
  %26 = srem i32 %25, 10
  store i32 %26, i32* %7, align 4
  %27 = load i32, i32* %2, align 4
  %28 = srem i32 %27, 100
  %29 = load i32, i32* %7, align 4
  %30 = sub nsw i32 %28, %29
  %31 = sdiv i32 %30, 10
  store i32 %31, i32* %6, align 4
  %32 = load i32, i32* %3, align 4
  %33 = icmp ne i32 %32, 0
  br i1 %33, label %34, label %41

34:                                               ; preds = %0
  %35 = load i32, i32* %7, align 4
  %36 = load i32, i32* %6, align 4
  %37 = load i32, i32* %5, align 4
  %38 = load i32, i32* %4, align 4
  %39 = load i32, i32* %3, align 4
  %40 = call i32 (i8*, ...) @printf(i8* getelementptr inbounds ([11 x i8], [11 x i8]* @.str.1, i64 0, i64 0), i32 %35, i32 %36, i32 %37, i32 %38, i32 %39)
  br label %71

41:                                               ; preds = %0
  %42 = load i32, i32* %4, align 4
  %43 = icmp ne i32 %42, 0
  br i1 %43, label %44, label %50

44:                                               ; preds = %41
  %45 = load i32, i32* %7, align 4
  %46 = load i32, i32* %6, align 4
  %47 = load i32, i32* %5, align 4
  %48 = load i32, i32* %4, align 4
  %49 = call i32 (i8*, ...) @printf(i8* getelementptr inbounds ([9 x i8], [9 x i8]* @.str.2, i64 0, i64 0), i32 %45, i32 %46, i32 %47, i32 %48)
  br label %70

50:                                               ; preds = %41
  %51 = load i32, i32* %5, align 4
  %52 = icmp ne i32 %51, 0
  br i1 %52, label %53, label %58

53:                                               ; preds = %50
  %54 = load i32, i32* %7, align 4
  %55 = load i32, i32* %6, align 4
  %56 = load i32, i32* %5, align 4
  %57 = call i32 (i8*, ...) @printf(i8* getelementptr inbounds ([7 x i8], [7 x i8]* @.str.3, i64 0, i64 0), i32 %54, i32 %55, i32 %56)
  br label %69

58:                                               ; preds = %50
  %59 = load i32, i32* %6, align 4
  %60 = icmp ne i32 %59, 0
  br i1 %60, label %61, label %65

61:                                               ; preds = %58
  %62 = load i32, i32* %7, align 4
  %63 = load i32, i32* %6, align 4
  %64 = call i32 (i8*, ...) @printf(i8* getelementptr inbounds ([5 x i8], [5 x i8]* @.str.4, i64 0, i64 0), i32 %62, i32 %63)
  br label %68

65:                                               ; preds = %58
  %66 = load i32, i32* %7, align 4
  %67 = call i32 (i8*, ...) @printf(i8* getelementptr inbounds ([3 x i8], [3 x i8]* @.str, i64 0, i64 0), i32 %66)
  br label %68

68:                                               ; preds = %65, %61
  br label %69

69:                                               ; preds = %68, %53
  br label %70

70:                                               ; preds = %69, %44
  br label %71

71:                                               ; preds = %70, %34
  ret i32 0
}

declare dso_local i32 @__isoc99_scanf(i8*, ...) #1

declare dso_local i32 @printf(i8*, ...) #1


!llvm.module.flags = !{!0}
!llvm.ident = !{!1}

!0 = !{i32 1, !"wchar_size", i32 4}
!1 = !{!"clang version 10.0.0-4ubuntu1 "}
